(dp0
VappName
p1
VVivaVideo
p2
sVpackageName
p3
Vcom.quvideo.xiaoying
p4
sVappVersion
p5
V7.3.0
p6
sVsum
p7
L2L
sVpass
p8
L2L
sVfail
p9
L0L
sVtestDate
p10
V2018-09-10 16:42:15
p11
sVtestSumDate
p12
V159\u79d2
p13
s.