(dp0
VappName
p1
VVivaVideo
p2
sVpackageName
p3
Vcom.quvideo.xiaoying
p4
sVappVersion
p5
V7.3.1
p6
sVsum
p7
L7L
sVpass
p8
L5L
sVfail
p9
L2L
sVtestDate
p10
V2018-09-18 17:23:57
p11
sVtestSumDate
p12
V668\u79d2
p13
s.